; ModuleID = '21/1745.c'
source_filename = "21/1745.c"
target datalayout = "e-m:e-p270:32:32-p271:32:32-p272:64:64-i64:64-f80:128-n8:16:32:64-S128"
target triple = "x86_64-pc-linux-gnu"

@.str = private unnamed_addr constant [3 x i8] c"%d\00", align 1
@.str.1 = private unnamed_addr constant [2 x i8] c",\00", align 1

; Function Attrs: noinline nounwind uwtable
define dso_local void @main() #0 {
  %1 = alloca [400 x i32], align 16
  %2 = alloca i32, align 4
  %3 = alloca i32, align 4
  %4 = alloca i32, align 4
  %5 = alloca i32, align 4
  %6 = alloca i32, align 4
  %7 = alloca i32, align 4
  %8 = alloca i32, align 4
  %9 = alloca float, align 4
  %10 = alloca float, align 4
  store i32 0, i32* %6, align 4
  store i32 0, i32* %7, align 4
  %11 = call i32 (i8*, ...) @__isoc99_scanf(i8* getelementptr inbounds ([3 x i8], [3 x i8]* @.str, i64 0, i64 0), i32* %4)
  store i32 0, i32* %2, align 4
  br label %12

12:                                               ; preds = %27, %0
  %13 = load i32, i32* %2, align 4
  %14 = load i32, i32* %4, align 4
  %15 = icmp slt i32 %13, %14
  br i1 %15, label %16, label %30

16:                                               ; preds = %12
  %17 = load i32, i32* %2, align 4
  %18 = sext i32 %17 to i64
  %19 = getelementptr inbounds [400 x i32], [400 x i32]* %1, i64 0, i64 %18
  %20 = call i32 (i8*, ...) @__isoc99_scanf(i8* getelementptr inbounds ([3 x i8], [3 x i8]* @.str, i64 0, i64 0), i32* %19)
  %21 = load i32, i32* %6, align 4
  %22 = load i32, i32* %2, align 4
  %23 = sext i32 %22 to i64
  %24 = getelementptr inbounds [400 x i32], [400 x i32]* %1, i64 0, i64 %23
  %25 = load i32, i32* %24, align 4
  %26 = add nsw i32 %21, %25
  store i32 %26, i32* %6, align 4
  br label %27

27:                                               ; preds = %16
  %28 = load i32, i32* %2, align 4
  %29 = add nsw i32 %28, 1
  store i32 %29, i32* %2, align 4
  br label %12

30:                                               ; preds = %12
  store i32 0, i32* %2, align 4
  br label %31

31:                                               ; preds = %73, %30
  %32 = load i32, i32* %2, align 4
  %33 = load i32, i32* %4, align 4
  %34 = icmp slt i32 %32, %33
  br i1 %34, label %35, label %76

35:                                               ; preds = %31
  %36 = load i32, i32* %2, align 4
  %37 = add nsw i32 %36, 1
  store i32 %37, i32* %3, align 4
  br label %38

38:                                               ; preds = %69, %35
  %39 = load i32, i32* %3, align 4
  %40 = load i32, i32* %4, align 4
  %41 = icmp slt i32 %39, %40
  br i1 %41, label %42, label %72

42:                                               ; preds = %38
  %43 = load i32, i32* %3, align 4
  %44 = sext i32 %43 to i64
  %45 = getelementptr inbounds [400 x i32], [400 x i32]* %1, i64 0, i64 %44
  %46 = load i32, i32* %45, align 4
  %47 = load i32, i32* %2, align 4
  %48 = sext i32 %47 to i64
  %49 = getelementptr inbounds [400 x i32], [400 x i32]* %1, i64 0, i64 %48
  %50 = load i32, i32* %49, align 4
  %51 = icmp slt i32 %46, %50
  br i1 %51, label %52, label %68

52:                                               ; preds = %42
  %53 = load i32, i32* %2, align 4
  %54 = sext i32 %53 to i64
  %55 = getelementptr inbounds [400 x i32], [400 x i32]* %1, i64 0, i64 %54
  %56 = load i32, i32* %55, align 4
  store i32 %56, i32* %5, align 4
  %57 = load i32, i32* %3, align 4
  %58 = sext i32 %57 to i64
  %59 = getelementptr inbounds [400 x i32], [400 x i32]* %1, i64 0, i64 %58
  %60 = load i32, i32* %59, align 4
  %61 = load i32, i32* %2, align 4
  %62 = sext i32 %61 to i64
  %63 = getelementptr inbounds [400 x i32], [400 x i32]* %1, i64 0, i64 %62
  store i32 %60, i32* %63, align 4
  %64 = load i32, i32* %5, align 4
  %65 = load i32, i32* %3, align 4
  %66 = sext i32 %65 to i64
  %67 = getelementptr inbounds [400 x i32], [400 x i32]* %1, i64 0, i64 %66
  store i32 %64, i32* %67, align 4
  br label %68

68:                                               ; preds = %52, %42
  br label %69

69:                                               ; preds = %68
  %70 = load i32, i32* %3, align 4
  %71 = add nsw i32 %70, 1
  store i32 %71, i32* %3, align 4
  br label %38

72:                                               ; preds = %38
  br label %73

73:                                               ; preds = %72
  %74 = load i32, i32* %2, align 4
  %75 = add nsw i32 %74, 1
  store i32 %75, i32* %2, align 4
  br label %31

76:                                               ; preds = %31
  %77 = load i32, i32* %6, align 4
  %78 = sitofp i32 %77 to float
  %79 = load i32, i32* %4, align 4
  %80 = sitofp i32 %79 to float
  %81 = fdiv float %78, %80
  store float %81, float* %9, align 4
  %82 = getelementptr inbounds [400 x i32], [400 x i32]* %1, i64 0, i64 0
  %83 = load i32, i32* %82, align 16
  %84 = sitofp i32 %83 to float
  %85 = load i32, i32* %4, align 4
  %86 = sub nsw i32 %85, 1
  %87 = sext i32 %86 to i64
  %88 = getelementptr inbounds [400 x i32], [400 x i32]* %1, i64 0, i64 %87
  %89 = load i32, i32* %88, align 4
  %90 = sitofp i32 %89 to float
  %91 = fadd float %84, %90
  %92 = load float, float* %9, align 4
  %93 = fmul float 2.000000e+00, %92
  %94 = fsub float %91, %93
  store float %94, float* %10, align 4
  %95 = load float, float* %10, align 4
  %96 = fpext float %95 to double
  %97 = fcmp olt double %96, 1.000000e-03
  br i1 %97, label %98, label %142

98:                                               ; preds = %76
  %99 = load float, float* %10, align 4
  %100 = fpext float %99 to double
  %101 = fcmp ogt double %100, -1.000000e-03
  br i1 %101, label %102, label %142

102:                                              ; preds = %98
  store i32 0, i32* %2, align 4
  br label %103

103:                                              ; preds = %138, %102
  %104 = load i32, i32* %2, align 4
  %105 = load i32, i32* %4, align 4
  %106 = icmp slt i32 %104, %105
  br i1 %106, label %107, label %141

107:                                              ; preds = %103
  %108 = load i32, i32* %2, align 4
  %109 = sext i32 %108 to i64
  %110 = getelementptr inbounds [400 x i32], [400 x i32]* %1, i64 0, i64 %109
  %111 = load i32, i32* %110, align 4
  %112 = getelementptr inbounds [400 x i32], [400 x i32]* %1, i64 0, i64 0
  %113 = load i32, i32* %112, align 16
  %114 = icmp eq i32 %111, %113
  br i1 %114, label %126, label %115

115:                                              ; preds = %107
  %116 = load i32, i32* %2, align 4
  %117 = sext i32 %116 to i64
  %118 = getelementptr inbounds [400 x i32], [400 x i32]* %1, i64 0, i64 %117
  %119 = load i32, i32* %118, align 4
  %120 = load i32, i32* %4, align 4
  %121 = sub nsw i32 %120, 1
  %122 = sext i32 %121 to i64
  %123 = getelementptr inbounds [400 x i32], [400 x i32]* %1, i64 0, i64 %122
  %124 = load i32, i32* %123, align 4
  %125 = icmp eq i32 %119, %124
  br i1 %125, label %126, label %137

126:                                              ; preds = %115, %107
  %127 = load i32, i32* %7, align 4
  %128 = icmp eq i32 %127, 1
  br i1 %128, label %129, label %131

129:                                              ; preds = %126
  %130 = call i32 (i8*, ...) @printf(i8* getelementptr inbounds ([2 x i8], [2 x i8]* @.str.1, i64 0, i64 0))
  br label %131

131:                                              ; preds = %129, %126
  %132 = load i32, i32* %2, align 4
  %133 = sext i32 %132 to i64
  %134 = getelementptr inbounds [400 x i32], [400 x i32]* %1, i64 0, i64 %133
  %135 = load i32, i32* %134, align 4
  %136 = call i32 (i8*, ...) @printf(i8* getelementptr inbounds ([3 x i8], [3 x i8]* @.str, i64 0, i64 0), i32 %135)
  store i32 1, i32* %7, align 4
  br label %137

137:                                              ; preds = %131, %115
  br label %138

138:                                              ; preds = %137
  %139 = load i32, i32* %2, align 4
  %140 = add nsw i32 %139, 1
  store i32 %140, i32* %2, align 4
  br label %103

141:                                              ; preds = %103
  br label %183

142:                                              ; preds = %98, %76
  store i32 0, i32* %7, align 4
  %143 = load float, float* %10, align 4
  %144 = fcmp ogt float %143, 0.000000e+00
  br i1 %144, label %145, label %151

145:                                              ; preds = %142
  %146 = load i32, i32* %4, align 4
  %147 = sub nsw i32 %146, 1
  %148 = sext i32 %147 to i64
  %149 = getelementptr inbounds [400 x i32], [400 x i32]* %1, i64 0, i64 %148
  %150 = load i32, i32* %149, align 4
  br label %154

151:                                              ; preds = %142
  %152 = getelementptr inbounds [400 x i32], [400 x i32]* %1, i64 0, i64 0
  %153 = load i32, i32* %152, align 16
  br label %154

154:                                              ; preds = %151, %145
  %155 = phi i32 [ %150, %145 ], [ %153, %151 ]
  store i32 %155, i32* %8, align 4
  store i32 0, i32* %2, align 4
  br label %156

156:                                              ; preds = %179, %154
  %157 = load i32, i32* %2, align 4
  %158 = load i32, i32* %4, align 4
  %159 = icmp slt i32 %157, %158
  br i1 %159, label %160, label %182

160:                                              ; preds = %156
  %161 = load i32, i32* %2, align 4
  %162 = sext i32 %161 to i64
  %163 = getelementptr inbounds [400 x i32], [400 x i32]* %1, i64 0, i64 %162
  %164 = load i32, i32* %163, align 4
  %165 = load i32, i32* %8, align 4
  %166 = icmp eq i32 %164, %165
  br i1 %166, label %167, label %178

167:                                              ; preds = %160
  %168 = load i32, i32* %7, align 4
  %169 = icmp eq i32 %168, 1
  br i1 %169, label %170, label %172

170:                                              ; preds = %167
  %171 = call i32 (i8*, ...) @printf(i8* getelementptr inbounds ([2 x i8], [2 x i8]* @.str.1, i64 0, i64 0))
  br label %172

172:                                              ; preds = %170, %167
  %173 = load i32, i32* %2, align 4
  %174 = sext i32 %173 to i64
  %175 = getelementptr inbounds [400 x i32], [400 x i32]* %1, i64 0, i64 %174
  %176 = load i32, i32* %175, align 4
  %177 = call i32 (i8*, ...) @printf(i8* getelementptr inbounds ([3 x i8], [3 x i8]* @.str, i64 0, i64 0), i32 %176)
  store i32 1, i32* %7, align 4
  br label %178

178:                                              ; preds = %172, %160
  br label %179

179:                                              ; preds = %178
  %180 = load i32, i32* %2, align 4
  %181 = add nsw i32 %180, 1
  store i32 %181, i32* %2, align 4
  br label %156

182:                                              ; preds = %156
  br label %183

183:                                              ; preds = %182, %141
  ret void
}

declare dso_local i32 @__isoc99_scanf(i8*, ...) #1

declare dso_local i32 @printf(i8*, ...) #1


!llvm.module.flags = !{!0}
!llvm.ident = !{!1}

!0 = !{i32 1, !"wchar_size", i32 4}
!1 = !{!"clang version 10.0.0-4ubuntu1 "}
